target datalayout = "e-m:e-p270:32:32-p271:32:32-p272:64:64-i64:64-i128:128-f80:128-n8:16:32:64-S128"
target triple = "x86_64-pc-linux-gnu"

%struct._lv_fragment_manager_t = type { ptr, %struct.lv_ll_t, %struct.lv_ll_t }
%struct.lv_ll_t = type { i32, ptr, ptr }
%struct._lv_fragment_managed_states_t = type { ptr, ptr, ptr, ptr, i8, i8, i8 }
%struct._lv_fragment_t = type { ptr, ptr, ptr, ptr }
%struct._lv_fragment_class_t = type { ptr, ptr, ptr, ptr, ptr, ptr, ptr, ptr, ptr, i64 }

; Function Attrs: nounwind uwtable
define internal void @item_delete_fragment(ptr noundef %0) #0 {
  %2 = alloca ptr, align 8
  %3 = alloca ptr, align 8
  store ptr %0, ptr %2, align 8, !tbaa !3
  call void @llvm.lifetime.start.p0(i64 8, ptr %3) #4
  %4 = load ptr, ptr %2, align 8, !tbaa !3
  %5 = getelementptr inbounds nuw %struct._lv_fragment_managed_states_t, ptr %4, i32 0, i32 3
  %6 = load ptr, ptr %5, align 8, !tbaa !13
  store ptr %6, ptr %3, align 8, !tbaa !3
  %7 = load ptr, ptr %3, align 8, !tbaa !3
  %8 = getelementptr inbounds nuw %struct._lv_fragment_t, ptr %7, i32 0, i32 0
  %9 = load ptr, ptr %8, align 8, !tbaa !16
  %10 = getelementptr inbounds nuw %struct._lv_fragment_class_t, ptr %9, i32 0, i32 3
  %11 = load ptr, ptr %10, align 8, !tbaa !18
  %12 = icmp ne ptr %11, null
  br i1 %12, label %13, label %20

13:                                               ; preds = %1
  %14 = load ptr, ptr %3, align 8, !tbaa !3
  %15 = getelementptr inbounds nuw %struct._lv_fragment_t, ptr %14, i32 0, i32 0
  %16 = load ptr, ptr %15, align 8, !tbaa !16
  %17 = getelementptr inbounds nuw %struct._lv_fragment_class_t, ptr %16, i32 0, i32 3
  %18 = load ptr, ptr %17, align 8, !tbaa !18
  %19 = load ptr, ptr %3, align 8, !tbaa !3
  call void %18(ptr noundef %19)
  br label %20

20:                                               ; preds = %13, %1
  %21 = load ptr, ptr %3, align 8, !tbaa !3
  %22 = getelementptr inbounds nuw %struct._lv_fragment_t, ptr %21, i32 0, i32 1
  store ptr null, ptr %22, align 8, !tbaa !21
  %23 = load ptr, ptr %3, align 8, !tbaa !3
  call void @lv_fragment_delete(ptr noundef %23)
  %24 = load ptr, ptr %2, align 8, !tbaa !3
  %25 = getelementptr inbounds nuw %struct._lv_fragment_managed_states_t, ptr %24, i32 0, i32 3
  store ptr null, ptr %25, align 8, !tbaa !13
  call void @llvm.lifetime.end.p0(i64 8, ptr %3) #4
  ret void
}

; Function Attrs: nounwind uwtable
define internal void @item_delete_obj(ptr noundef %0) #0 {
  %2 = alloca ptr, align 8
  store ptr %0, ptr %2, align 8, !tbaa !3
  %3 = load ptr, ptr %2, align 8, !tbaa !3
  %4 = getelementptr inbounds nuw %struct._lv_fragment_managed_states_t, ptr %3, i32 0, i32 3
  %5 = load ptr, ptr %4, align 8, !tbaa !13
  call void @lv_fragment_delete_obj(ptr noundef %5)
  ret void
}

; Function Attrs: nounwind uwtable
define void @lv_fragment_manager_delete(ptr noundef %0) #0 {
  %2 = alloca ptr, align 8
  %3 = alloca ptr, align 8
  store ptr %0, ptr %2, align 8, !tbaa !3
  br label %4

4:                                                ; preds = %1
  %5 = load ptr, ptr %2, align 8, !tbaa !3
  %6 = icmp ne ptr %5, null
  br i1 %6, label %11, label %7

7:                                                ; preds = %4
  br label %8

8:                                                ; preds = %7
  br label %9

9:                                                ; preds = %8
  br label %10

10:                                               ; preds = %9, %10
  br label %10

11:                                               ; preds = %4
  br label %12

12:                                               ; preds = %11
  call void @llvm.lifetime.start.p0(i64 8, ptr %3) #4
  %13 = load ptr, ptr %2, align 8, !tbaa !3
  %14 = getelementptr inbounds nuw %struct._lv_fragment_manager_t, ptr %13, i32 0, i32 1
  %15 = call ptr @lv_ll_get_tail(ptr noundef %14)
  store ptr %15, ptr %3, align 8, !tbaa !3
  br label %16

16:                                               ; preds = %22, %12
  %17 = load ptr, ptr %3, align 8, !tbaa !3
  %18 = icmp ne ptr %17, null
  br i1 %18, label %19, label %27

19:                                               ; preds = %16
  %20 = load ptr, ptr %3, align 8, !tbaa !3
  call void @item_delete_obj(ptr noundef %20)
  %21 = load ptr, ptr %3, align 8, !tbaa !3
  call void @item_delete_fragment(ptr noundef %21)
  br label %22

22:                                               ; preds = %19
  %23 = load ptr, ptr %2, align 8, !tbaa !3
  %24 = getelementptr inbounds nuw %struct._lv_fragment_manager_t, ptr %23, i32 0, i32 1
  %25 = load ptr, ptr %3, align 8, !tbaa !3
  %26 = call ptr @lv_ll_get_prev(ptr noundef %24, ptr noundef %25)
  store ptr %26, ptr %3, align 8, !tbaa !3
  br label %16, !llvm.loop !11

27:                                               ; preds = %16
  %28 = load ptr, ptr %2, align 8, !tbaa !3
  %29 = getelementptr inbounds nuw %struct._lv_fragment_manager_t, ptr %28, i32 0, i32 1
  call void @lv_ll_clear(ptr noundef %29)
  %30 = load ptr, ptr %2, align 8, !tbaa !3
  %31 = getelementptr inbounds nuw %struct._lv_fragment_manager_t, ptr %30, i32 0, i32 2
  call void @lv_ll_clear(ptr noundef %31)
  %32 = load ptr, ptr %2, align 8, !tbaa !3
  call void @lv_free(ptr noundef %32)
  call void @llvm.lifetime.end.p0(i64 8, ptr %3) #4
  ret void
}