; Function Attrs: nounwind uwtable
define void @lv_fragment_manager_delete(ptr noundef %0) local_unnamed_addr #0 {
  %.not = icmp eq ptr %0, null
  br i1 %.not, label %.preheader, label %2

.preheader:                                       ; preds = %1, %.preheader
  br label %.preheader

2:                                                ; preds = %1
  %3 = getelementptr inbounds nuw i8, ptr %0, i64 8
  %4 = tail call ptr @lv_ll_get_tail(ptr noundef nonnull %3) #3
  %.not1112 = icmp eq ptr %4, null
  br i1 %.not1112, label %._crit_edge, label %.lr.ph

.lr.ph:                                           ; preds = %2, %item_delete_fragment.exit
  %.013 = phi ptr [ %12, %item_delete_fragment.exit ], [ %4, %2 ]
  %5 = getelementptr i8, ptr %.013, i64 24
  %.0.val = load ptr, ptr %5, align 8, !tbaa !10
  tail call void @lv_fragment_delete_obj(ptr noundef %.0.val) #3
  %6 = load ptr, ptr %5, align 8, !tbaa !10
  %7 = load ptr, ptr %6, align 8, !tbaa !13
  %8 = getelementptr inbounds nuw i8, ptr %7, i64 24
  %9 = load ptr, ptr %8, align 8, !tbaa !15
  %.not.i = icmp eq ptr %9, null
  br i1 %.not.i, label %item_delete_fragment.exit, label %10

10:                                               ; preds = %.lr.ph
  tail call void %9(ptr noundef nonnull %6) #3
  br label %item_delete_fragment.exit

item_delete_fragment.exit:                        ; preds = %.lr.ph, %10
  %11 = getelementptr inbounds nuw i8, ptr %6, i64 8
  store ptr null, ptr %11, align 8, !tbaa !18
  tail call void @lv_fragment_delete(ptr noundef nonnull %6) #3
  store ptr null, ptr %5, align 8, !tbaa !10
  %12 = tail call ptr @lv_ll_get_prev(ptr noundef nonnull %3, ptr noundef nonnull %.013) #3
  %.not11 = icmp eq ptr %12, null
  br i1 %.not11, label %._crit_edge, label %.lr.ph, !llvm.loop !19

._crit_edge:                                      ; preds = %item_delete_fragment.exit, %2
  tail call void @lv_ll_clear(ptr noundef nonnull %3) #3
  %13 = getelementptr inbounds nuw i8, ptr %0, i64 32
  tail call void @lv_ll_clear(ptr noundef nonnull %13) #3
  tail call void @lv_free(ptr noundef nonnull %0) #3
  ret void
}